target datalayout = "e-m:e-p270:32:32-p271:32:32-p272:64:64-i64:64-i128:128-f80:128-n8:16:32:64-S128"
target triple = "x86_64-pc-linux-gnu"

%struct.PyMutex = type { i8 }
%struct._pending_calls = type { ptr, %struct.PyMutex, i32, i32, i32, [300 x %struct._pending_call], i32, i32 }
%struct._pending_call = type { ptr, ptr, i32 }

; Function Attrs: inlinehint nounwind uwtable
define internal i32 @_Py_atomic_add_int32(ptr noundef %0, i32 noundef %1) #2 {
  %3 = alloca ptr, align 8
  %4 = alloca i32, align 4
  %5 = alloca i32, align 4
  %6 = alloca i32, align 4
  store ptr %0, ptr %3, align 8, !tbaa !216
  store i32 %1, ptr %4, align 4, !tbaa !182
  %7 = load ptr, ptr %3, align 8, !tbaa !216
  %8 = load i32, ptr %4, align 4, !tbaa !182
  store i32 %8, ptr %5, align 4, !tbaa !182
  %9 = load i32, ptr %5, align 4
  %10 = atomicrmw add ptr %7, i32 %9 seq_cst, align 4
  store i32 %10, ptr %6, align 4
  %11 = load i32, ptr %6, align 4, !tbaa !182
  ret i32 %11
}

; Function Attrs: nounwind uwtable
define internal i32 @_next_pending_call(ptr noundef %0, ptr noundef %1, ptr noundef %2, ptr noundef %3) #0 {
  %5 = alloca i32, align 4
  %6 = alloca ptr, align 8
  %7 = alloca ptr, align 8
  %8 = alloca ptr, align 8
  %9 = alloca ptr, align 8
  %10 = alloca i32, align 4
  %11 = alloca i32, align 4
  store ptr %0, ptr %6, align 8, !tbaa !193
  store ptr %1, ptr %7, align 8, !tbaa !198
  store ptr %2, ptr %8, align 8, !tbaa !198
  store ptr %3, ptr %9, align 8, !tbaa !216
  call void @llvm.lifetime.start.p0(i64 4, ptr %10) #11
  %12 = load ptr, ptr %6, align 8, !tbaa !193
  %13 = getelementptr inbounds nuw %struct._pending_calls, ptr %12, i32 0, i32 6
  %14 = load i32, ptr %13, align 8, !tbaa !229
  store i32 %14, ptr %10, align 4, !tbaa !182
  %15 = load ptr, ptr %6, align 8, !tbaa !193
  %16 = getelementptr inbounds nuw %struct._pending_calls, ptr %15, i32 0, i32 2
  %17 = load i32, ptr %16, align 4, !tbaa !200
  %18 = icmp eq i32 %17, 0
  br i1 %18, label %19, label %20

19:                                               ; preds = %4
  store i32 -1, ptr %5, align 4
  store i32 1, ptr %11, align 4
  br label %46

20:                                               ; preds = %4
  %21 = load ptr, ptr %6, align 8, !tbaa !193
  %22 = getelementptr inbounds nuw %struct._pending_calls, ptr %21, i32 0, i32 5
  %23 = load i32, ptr %10, align 4, !tbaa !182
  %24 = sext i32 %23 to i64
  %25 = getelementptr [300 x %struct._pending_call], ptr %22, i64 0, i64 %24
  %26 = getelementptr inbounds nuw %struct._pending_call, ptr %25, i32 0, i32 0
  %27 = load ptr, ptr %26, align 8, !tbaa !203
  %28 = load ptr, ptr %7, align 8, !tbaa !198
  store ptr %27, ptr %28, align 8, !tbaa !198
  %29 = load ptr, ptr %6, align 8, !tbaa !193
  %30 = getelementptr inbounds nuw %struct._pending_calls, ptr %29, i32 0, i32 5
  %31 = load i32, ptr %10, align 4, !tbaa !182
  %32 = sext i32 %31 to i64
  %33 = getelementptr [300 x %struct._pending_call], ptr %30, i64 0, i64 %32
  %34 = getelementptr inbounds nuw %struct._pending_call, ptr %33, i32 0, i32 1
  %35 = load ptr, ptr %34, align 8, !tbaa !205
  %36 = load ptr, ptr %8, align 8, !tbaa !198
  store ptr %35, ptr %36, align 8, !tbaa !198
  %37 = load ptr, ptr %6, align 8, !tbaa !193
  %38 = getelementptr inbounds nuw %struct._pending_calls, ptr %37, i32 0, i32 5
  %39 = load i32, ptr %10, align 4, !tbaa !182
  %40 = sext i32 %39 to i64
  %41 = getelementptr [300 x %struct._pending_call], ptr %38, i64 0, i64 %40
  %42 = getelementptr inbounds nuw %struct._pending_call, ptr %41, i32 0, i32 2
  %43 = load i32, ptr %42, align 8, !tbaa !206
  %44 = load ptr, ptr %9, align 8, !tbaa !216
  store i32 %43, ptr %44, align 4, !tbaa !182
  %45 = load i32, ptr %10, align 4, !tbaa !182
  store i32 %45, ptr %5, align 4
  store i32 1, ptr %11, align 4
  br label %46

46:                                               ; preds = %20, %19
  call void @llvm.lifetime.end.p0(i64 4, ptr %10) #11
  %47 = load i32, ptr %5, align 4
  ret i32 %47
}

; Function Attrs: inlinehint nounwind uwtable
define internal i32 @_Py_atomic_compare_exchange_uint8(ptr noundef %0, ptr noundef %1, i8 noundef zeroext %2) #2 {
  %4 = alloca ptr, align 8
  %5 = alloca ptr, align 8
  %6 = alloca i8, align 1
  %7 = alloca i8, align 1
  %8 = alloca i8, align 1
  store ptr %0, ptr %4, align 8, !tbaa !184
  store ptr %1, ptr %5, align 8, !tbaa !184
  store i8 %2, ptr %6, align 1, !tbaa !199
  %9 = load ptr, ptr %4, align 8, !tbaa !184
  %10 = load ptr, ptr %5, align 8, !tbaa !184
  %11 = load i8, ptr %6, align 1, !tbaa !199
  store i8 %11, ptr %7, align 1, !tbaa !199
  %12 = load i8, ptr %10, align 1
  %13 = load i8, ptr %7, align 1
  %14 = cmpxchg ptr %9, i8 %12, i8 %13 seq_cst seq_cst, align 1
  %15 = extractvalue { i8, i1 } %14, 0
  %16 = extractvalue { i8, i1 } %14, 1
  br i1 %16, label %18, label %17

17:                                               ; preds = %3
  store i8 %15, ptr %10, align 1
  br label %18

18:                                               ; preds = %17, %3
  %19 = zext i1 %16 to i8
  store i8 %19, ptr %8, align 1, !tbaa !223
  %20 = load i8, ptr %8, align 1, !tbaa !223, !range !224, !noundef !225
  %21 = trunc i8 %20 to i1
  %22 = zext i1 %21 to i32
  ret i32 %22
}

; Function Attrs: inlinehint nounwind uwtable
define internal void @_PyMutex_Unlock(ptr noundef %0) #2 {
  %2 = alloca ptr, align 8
  %3 = alloca i8, align 1
  store ptr %0, ptr %2, align 8, !tbaa !195
  call void @llvm.lifetime.start.p0(i64 1, ptr %3) #11
  store i8 1, ptr %3, align 1, !tbaa !199
  %4 = load ptr, ptr %2, align 8, !tbaa !195
  %5 = getelementptr inbounds nuw %struct.PyMutex, ptr %4, i32 0, i32 0
  %6 = call i32 @_Py_atomic_compare_exchange_uint8(ptr noundef %5, ptr noundef %3, i8 noundef zeroext 0)
  %7 = icmp ne i32 %6, 0
  br i1 %7, label %10, label %8

8:                                                ; preds = %1
  %9 = load ptr, ptr %2, align 8, !tbaa !195
  call void @PyMutex_Unlock(ptr noundef %9)
  br label %10

10:                                               ; preds = %8, %1
  call void @llvm.lifetime.end.p0(i64 1, ptr %3) #11
  ret void
}

; Function Attrs: nounwind uwtable
define internal void @_pop_pending_call(ptr noundef %0, ptr noundef %1, ptr noundef %2, ptr noundef %3) #0 {
  %5 = alloca ptr, align 8
  %6 = alloca ptr, align 8
  %7 = alloca ptr, align 8
  %8 = alloca ptr, align 8
  %9 = alloca i32, align 4
  %10 = alloca %struct._pending_call, align 8
  store ptr %0, ptr %5, align 8, !tbaa !193
  store ptr %1, ptr %6, align 8, !tbaa !198
  store ptr %2, ptr %7, align 8, !tbaa !198
  store ptr %3, ptr %8, align 8, !tbaa !216
  call void @llvm.lifetime.start.p0(i64 4, ptr %9) #11
  %11 = load ptr, ptr %5, align 8, !tbaa !193
  %12 = load ptr, ptr %6, align 8, !tbaa !198
  %13 = load ptr, ptr %7, align 8, !tbaa !198
  %14 = load ptr, ptr %8, align 8, !tbaa !216
  %15 = call i32 @_next_pending_call(ptr noundef %11, ptr noundef %12, ptr noundef %13, ptr noundef %14)
  store i32 %15, ptr %9, align 4, !tbaa !182
  %16 = load i32, ptr %9, align 4, !tbaa !182
  %17 = icmp sge i32 %16, 0
  br i1 %17, label %18, label %32

18:                                               ; preds = %4
  %19 = load ptr, ptr %5, align 8, !tbaa !193
  %20 = getelementptr inbounds nuw %struct._pending_calls, ptr %19, i32 0, i32 5
  %21 = load i32, ptr %9, align 4, !tbaa !182
  %22 = sext i32 %21 to i64
  %23 = getelementptr [300 x %struct._pending_call], ptr %20, i64 0, i64 %22
  call void @llvm.memset.p0.i64(ptr align 8 %10, i8 0, i64 24, i1 false)
  call void @llvm.memcpy.p0.p0.i64(ptr align 8 %23, ptr align 8 %10, i64 24, i1 false), !tbaa.struct !228
  %24 = load i32, ptr %9, align 4, !tbaa !182
  %25 = add i32 %24, 1
  %26 = srem i32 %25, 300
  %27 = load ptr, ptr %5, align 8, !tbaa !193
  %28 = getelementptr inbounds nuw %struct._pending_calls, ptr %27, i32 0, i32 6
  store i32 %26, ptr %28, align 8, !tbaa !229
  %29 = load ptr, ptr %5, align 8, !tbaa !193
  %30 = getelementptr inbounds nuw %struct._pending_calls, ptr %29, i32 0, i32 2
  %31 = call i32 @_Py_atomic_add_int32(ptr noundef %30, i32 noundef -1)
  br label %32

32:                                               ; preds = %18, %4
  call void @llvm.lifetime.end.p0(i64 4, ptr %9) #11
  ret void
}

; Function Attrs: inlinehint nounwind uwtable
define internal void @_PyMutex_Lock(ptr noundef %0) #2 {
  %2 = alloca ptr, align 8
  %3 = alloca i8, align 1
  store ptr %0, ptr %2, align 8, !tbaa !195
  call void @llvm.lifetime.start.p0(i64 1, ptr %3) #11
  store i8 0, ptr %3, align 1, !tbaa !199
  %4 = load ptr, ptr %2, align 8, !tbaa !195
  %5 = getelementptr inbounds nuw %struct.PyMutex, ptr %4, i32 0, i32 0
  %6 = call i32 @_Py_atomic_compare_exchange_uint8(ptr noundef %5, ptr noundef %3, i8 noundef zeroext 1)
  %7 = icmp ne i32 %6, 0
  br i1 %7, label %10, label %8

8:                                                ; preds = %1
  %9 = load ptr, ptr %2, align 8, !tbaa !195
  call void @PyMutex_Lock(ptr noundef %9)
  br label %10

10:                                               ; preds = %8, %1
  call void @llvm.lifetime.end.p0(i64 1, ptr %3) #11
  ret void
}

; Function Attrs: nounwind uwtable
define internal i32 @_make_pending_calls(ptr noundef %0, ptr noundef %1) #0 {
  %3 = alloca i32, align 4
  %4 = alloca ptr, align 8
  %5 = alloca ptr, align 8
  %6 = alloca i32, align 4
  %7 = alloca i32, align 4
  %8 = alloca i32, align 4
  %9 = alloca i32, align 4
  %10 = alloca i32, align 4
  %11 = alloca ptr, align 8
  %12 = alloca ptr, align 8
  %13 = alloca i32, align 4
  store ptr %0, ptr %4, align 8, !tbaa !193
  store ptr %1, ptr %5, align 8, !tbaa !216
  call void @llvm.lifetime.start.p0(i64 4, ptr %6) #11
  store i32 0, ptr %6, align 4, !tbaa !182
  call void @llvm.lifetime.start.p0(i64 4, ptr %7) #11
  store i32 -1, ptr %7, align 4, !tbaa !182
  call void @llvm.lifetime.start.p0(i64 4, ptr %8) #11
  %14 = load ptr, ptr %4, align 8, !tbaa !193
  %15 = getelementptr inbounds nuw %struct._pending_calls, ptr %14, i32 0, i32 4
  %16 = load i32, ptr %15, align 4, !tbaa !226
  store i32 %16, ptr %8, align 4, !tbaa !182
  %17 = load i32, ptr %8, align 4, !tbaa !182
  %18 = icmp eq i32 %17, 0
  br i1 %18, label %19, label %23

19:                                               ; preds = %2
  %20 = load ptr, ptr %4, align 8, !tbaa !193
  %21 = getelementptr inbounds nuw %struct._pending_calls, ptr %20, i32 0, i32 3
  %22 = load i32, ptr %21, align 8, !tbaa !201
  store i32 %22, ptr %8, align 4, !tbaa !182
  br label %23

23:                                               ; preds = %19, %2
  call void @llvm.lifetime.start.p0(i64 4, ptr %9) #11
  store i32 0, ptr %9, align 4, !tbaa !182
  br label %24

24:                                               ; preds = %61, %23
  %25 = load i32, ptr %9, align 4, !tbaa !182
  %26 = load i32, ptr %8, align 4, !tbaa !182
  %27 = icmp slt i32 %25, %26
  br i1 %27, label %29, label %28

28:                                               ; preds = %24
  store i32 2, ptr %10, align 4
  br label %64

29:                                               ; preds = %24
  call void @llvm.lifetime.start.p0(i64 8, ptr %11) #11
  store ptr null, ptr %11, align 8, !tbaa !198
  call void @llvm.lifetime.start.p0(i64 8, ptr %12) #11
  store ptr null, ptr %12, align 8, !tbaa !198
  call void @llvm.lifetime.start.p0(i64 4, ptr %13) #11
  store i32 0, ptr %13, align 4, !tbaa !182
  %30 = load ptr, ptr %4, align 8, !tbaa !193
  %31 = getelementptr inbounds nuw %struct._pending_calls, ptr %30, i32 0, i32 1
  call void @_PyMutex_Lock(ptr noundef %31)
  %32 = load ptr, ptr %4, align 8, !tbaa !193
  call void @_pop_pending_call(ptr noundef %32, ptr noundef %11, ptr noundef %12, ptr noundef %13)
  %33 = load ptr, ptr %4, align 8, !tbaa !193
  %34 = getelementptr inbounds nuw %struct._pending_calls, ptr %33, i32 0, i32 2
  %35 = load i32, ptr %34, align 4, !tbaa !200
  store i32 %35, ptr %7, align 4, !tbaa !182
  %36 = load ptr, ptr %4, align 8, !tbaa !193
  %37 = getelementptr inbounds nuw %struct._pending_calls, ptr %36, i32 0, i32 1
  call void @_PyMutex_Unlock(ptr noundef %37)
  %38 = load ptr, ptr %11, align 8, !tbaa !198
  %39 = icmp eq ptr %38, null
  br i1 %39, label %40, label %41

40:                                               ; preds = %29
  store i32 2, ptr %10, align 4
  br label %58

41:                                               ; preds = %29
  %42 = load ptr, ptr %11, align 8, !tbaa !198
  %43 = load ptr, ptr %12, align 8, !tbaa !198
  %44 = call i32 %42(ptr noundef %43)
  store i32 %44, ptr %6, align 4, !tbaa !182
  %45 = load i32, ptr %13, align 4, !tbaa !182
  %46 = and i32 %45, 2
  %47 = icmp ne i32 %46, 0
  br i1 %47, label %48, label %53

48:                                               ; preds = %41
  %49 = load ptr, ptr %12, align 8, !tbaa !198
  %50 = icmp ne ptr %49, null
  br i1 %50, label %51, label %53

51:                                               ; preds = %48
  %52 = load ptr, ptr %12, align 8, !tbaa !198
  call void @PyMem_RawFree(ptr noundef %52)
  br label %53

53:                                               ; preds = %51, %48, %41
  %54 = load i32, ptr %6, align 4, !tbaa !182
  %55 = icmp ne i32 %54, 0
  br i1 %55, label %56, label %57

56:                                               ; preds = %53
  store i32 -1, ptr %6, align 4, !tbaa !182
  store i32 5, ptr %10, align 4
  br label %58

57:                                               ; preds = %53
  store i32 0, ptr %10, align 4
  br label %58

58:                                               ; preds = %56, %57, %40
  call void @llvm.lifetime.end.p0(i64 4, ptr %13) #11
  call void @llvm.lifetime.end.p0(i64 8, ptr %12) #11
  call void @llvm.lifetime.end.p0(i64 8, ptr %11) #11
  %59 = load i32, ptr %10, align 4
  switch i32 %59, label %64 [
    i32 0, label %60
  ]

60:                                               ; preds = %58
  br label %61

61:                                               ; preds = %60
  %62 = load i32, ptr %9, align 4, !tbaa !182
  %63 = add i32 %62, 1
  store i32 %63, ptr %9, align 4, !tbaa !182
  br label %24, !llvm.loop !227

64:                                               ; preds = %58, %28
  call void @llvm.lifetime.end.p0(i64 4, ptr %9) #11
  %65 = load i32, ptr %10, align 4
  switch i32 %65, label %71 [
    i32 2, label %66
    i32 5, label %67
  ]

66:                                               ; preds = %64
  br label %67

67:                                               ; preds = %66, %64
  %68 = load i32, ptr %7, align 4, !tbaa !182
  %69 = load ptr, ptr %5, align 8, !tbaa !216
  store i32 %68, ptr %69, align 4, !tbaa !182
  %70 = load i32, ptr %6, align 4, !tbaa !182
  store i32 %70, ptr %3, align 4
  store i32 1, ptr %10, align 4
  br label %71

71:                                               ; preds = %67, %64
  call void @llvm.lifetime.end.p0(i64 4, ptr %8) #11
  call void @llvm.lifetime.end.p0(i64 4, ptr %7) #11
  call void @llvm.lifetime.end.p0(i64 4, ptr %6) #11
  %72 = load i32, ptr %3, align 4
  ret i32 %72
}