; Function Attrs: nounwind uwtable
define internal fastcc range(i32 -1, 1) i32 @_make_pending_calls(ptr noundef %0, ptr noundef nonnull writeonly captures(none) %1) unnamed_addr #4 {
  %3 = getelementptr inbounds nuw i8, ptr %0, i64 20
  %4 = load i32, ptr %3, align 4, !tbaa !204
  %5 = icmp eq i32 %4, 0
  br i1 %5, label %6, label %9

6:                                                ; preds = %2
  %7 = getelementptr inbounds nuw i8, ptr %0, i64 16
  %8 = load i32, ptr %7, align 8, !tbaa !190
  br label %9

9:                                                ; preds = %6, %2
  %.018 = phi i32 [ %8, %6 ], [ %4, %2 ]
  %10 = icmp sgt i32 %.018, 0
  br i1 %10, label %.lr.ph, label %.thread38

.lr.ph:                                           ; preds = %9
  %11 = getelementptr inbounds nuw i8, ptr %0, i64 8
  %12 = getelementptr inbounds nuw i8, ptr %0, i64 12
  %13 = getelementptr inbounds nuw i8, ptr %0, i64 7224
  %14 = getelementptr inbounds nuw i8, ptr %0, i64 24
  br label %17

15:                                               ; preds = %49
  %16 = add nuw nsw i32 %.01744, 1
  %exitcond.not = icmp eq i32 %16, %.018
  br i1 %exitcond.not, label %.thread38, label %17, !llvm.loop !205

17:                                               ; preds = %.lr.ph, %15
  %.01744 = phi i32 [ 0, %.lr.ph ], [ %16, %15 ]
  %18 = cmpxchg ptr %11, i8 0, i8 1 seq_cst seq_cst, align 1
  %19 = extractvalue { i8, i1 } %18, 1
  br i1 %19, label %_PyMutex_Lock.exit, label %20

20:                                               ; preds = %17
  tail call void @PyMutex_Lock(ptr noundef nonnull %11) #14
  br label %_PyMutex_Lock.exit

_PyMutex_Lock.exit:                               ; preds = %17, %20
  %21 = load i32, ptr %12, align 4, !tbaa !189
  %22 = icmp eq i32 %21, 0
  br i1 %22, label %_pop_pending_call.exit, label %_next_pending_call.exit.i

_next_pending_call.exit.i:                        ; preds = %_PyMutex_Lock.exit
  %23 = load i32, ptr %13, align 8, !tbaa !206
  %24 = sext i32 %23 to i64
  %25 = getelementptr [300 x %struct._pending_call], ptr %14, i64 0, i64 %24
  %26 = load ptr, ptr %25, align 8, !tbaa !192
  %27 = getelementptr inbounds nuw i8, ptr %25, i64 8
  %28 = load ptr, ptr %27, align 8, !tbaa !194
  %29 = getelementptr inbounds nuw i8, ptr %25, i64 16
  %30 = load i32, ptr %29, align 8, !tbaa !195
  %31 = icmp sgt i32 %23, -1
  br i1 %31, label %32, label %_pop_pending_call.exit

32:                                               ; preds = %_next_pending_call.exit.i
  %33 = zext nneg i32 %23 to i64
  %34 = getelementptr [300 x %struct._pending_call], ptr %14, i64 0, i64 %33
  tail call void @llvm.memset.p0.i64(ptr noundef nonnull align 8 dereferenceable(24) %34, i8 0, i64 24, i1 false)
  %35 = add nuw i32 %23, 1
  %36 = srem i32 %35, 300
  store i32 %36, ptr %13, align 8, !tbaa !206
  %37 = atomicrmw add ptr %12, i32 -1 seq_cst, align 4
  %.pre = load i32, ptr %12, align 4, !tbaa !189
  br label %_pop_pending_call.exit

_pop_pending_call.exit:                           ; preds = %_PyMutex_Lock.exit, %_next_pending_call.exit.i, %32
  %38 = phi i32 [ 0, %_PyMutex_Lock.exit ], [ %.pre, %32 ], [ %21, %_next_pending_call.exit.i ]
  %.034 = phi ptr [ null, %_PyMutex_Lock.exit ], [ %26, %32 ], [ %26, %_next_pending_call.exit.i ]
  %.033 = phi ptr [ null, %_PyMutex_Lock.exit ], [ %28, %32 ], [ %28, %_next_pending_call.exit.i ]
  %.032 = phi i32 [ 0, %_PyMutex_Lock.exit ], [ %30, %32 ], [ %30, %_next_pending_call.exit.i ]
  %39 = cmpxchg ptr %11, i8 1, i8 0 seq_cst seq_cst, align 1
  %40 = extractvalue { i8, i1 } %39, 1
  br i1 %40, label %_PyMutex_Unlock.exit, label %41

41:                                               ; preds = %_pop_pending_call.exit
  tail call void @PyMutex_Unlock(ptr noundef nonnull %11) #14
  br label %_PyMutex_Unlock.exit

_PyMutex_Unlock.exit:                             ; preds = %_pop_pending_call.exit, %41
  %42 = icmp eq ptr %.034, null
  br i1 %42, label %.thread38, label %43

43:                                               ; preds = %_PyMutex_Unlock.exit
  %44 = tail call i32 %.034(ptr noundef %.033) #14
  %45 = and i32 %.032, 2
  %46 = icmp ne i32 %45, 0
  %47 = icmp ne ptr %.033, null
  %or.cond = select i1 %46, i1 %47, i1 false
  br i1 %or.cond, label %48, label %49

48:                                               ; preds = %43
  tail call void @PyMem_RawFree(ptr noundef nonnull %.033) #14
  br label %49

49:                                               ; preds = %43, %48
  %.not = icmp eq i32 %44, 0
  br i1 %.not, label %15, label %.thread38

.thread38:                                        ; preds = %15, %_PyMutex_Unlock.exit, %49, %9
  %.12043 = phi i32 [ -1, %9 ], [ %38, %49 ], [ %38, %_PyMutex_Unlock.exit ], [ %38, %15 ]
  %.12242 = phi i32 [ 0, %9 ], [ 0, %15 ], [ 0, %_PyMutex_Unlock.exit ], [ -1, %49 ]
  store i32 %.12043, ptr %1, align 4, !tbaa !180
  ret i32 %.12242
}